
;CodeVisionAVR C Compiler V2.05.3 Standard
;(C) Copyright 1998-2011 Pavel Haiduc, HP InfoTech s.r.l.
;http://www.hpinfotech.com

;Chip type                : ATmega8
;Program type             : Application
;Clock frequency          : 11,059200 MHz
;Memory model             : Small
;Optimize for             : Size
;(s)printf features       : int, width
;(s)scanf features        : int, width
;External RAM size        : 0
;Data Stack size          : 256 byte(s)
;Heap size                : 0 byte(s)
;Promote 'char' to 'int'  : Yes
;'char' is unsigned       : Yes
;8 bit enums              : Yes
;Global 'const' stored in FLASH     : No
;Enhanced function parameter passing: Yes
;Enhanced core instructions         : On
;Smart register allocation          : On
;Automatic register allocation      : On

	#pragma AVRPART ADMIN PART_NAME ATmega8
	#pragma AVRPART MEMORY PROG_FLASH 8192
	#pragma AVRPART MEMORY EEPROM 512
	#pragma AVRPART MEMORY INT_SRAM SIZE 1119
	#pragma AVRPART MEMORY INT_SRAM START_ADDR 0x60

	.LISTMAC
	.EQU UDRE=0x5
	.EQU RXC=0x7
	.EQU USR=0xB
	.EQU UDR=0xC
	.EQU SPSR=0xE
	.EQU SPDR=0xF
	.EQU EERE=0x0
	.EQU EEWE=0x1
	.EQU EEMWE=0x2
	.EQU EECR=0x1C
	.EQU EEDR=0x1D
	.EQU EEARL=0x1E
	.EQU EEARH=0x1F
	.EQU WDTCR=0x21
	.EQU MCUCR=0x35
	.EQU GICR=0x3B
	.EQU SPL=0x3D
	.EQU SPH=0x3E
	.EQU SREG=0x3F

	.DEF R0X0=R0
	.DEF R0X1=R1
	.DEF R0X2=R2
	.DEF R0X3=R3
	.DEF R0X4=R4
	.DEF R0X5=R5
	.DEF R0X6=R6
	.DEF R0X7=R7
	.DEF R0X8=R8
	.DEF R0X9=R9
	.DEF R0XA=R10
	.DEF R0XB=R11
	.DEF R0XC=R12
	.DEF R0XD=R13
	.DEF R0XE=R14
	.DEF R0XF=R15
	.DEF R0X10=R16
	.DEF R0X11=R17
	.DEF R0X12=R18
	.DEF R0X13=R19
	.DEF R0X14=R20
	.DEF R0X15=R21
	.DEF R0X16=R22
	.DEF R0X17=R23
	.DEF R0X18=R24
	.DEF R0X19=R25
	.DEF R0X1A=R26
	.DEF R0X1B=R27
	.DEF R0X1C=R28
	.DEF R0X1D=R29
	.DEF R0X1E=R30
	.DEF R0X1F=R31

	.EQU __SRAM_START=0x0060
	.EQU __SRAM_END=0x045F
	.EQU __DSTACK_SIZE=0x0100
	.EQU __HEAP_SIZE=0x0000
	.EQU __CLEAR_SRAM_SIZE=__SRAM_END-__SRAM_START+1

	.MACRO __CPD1N
	CPI  R30,LOW(@0)
	LDI  R26,HIGH(@0)
	CPC  R31,R26
	LDI  R26,BYTE3(@0)
	CPC  R22,R26
	LDI  R26,BYTE4(@0)
	CPC  R23,R26
	.ENDM

	.MACRO __CPD2N
	CPI  R26,LOW(@0)
	LDI  R30,HIGH(@0)
	CPC  R27,R30
	LDI  R30,BYTE3(@0)
	CPC  R24,R30
	LDI  R30,BYTE4(@0)
	CPC  R25,R30
	.ENDM

	.MACRO __CPWRR
	CP   R@0,R@2
	CPC  R@1,R@3
	.ENDM

	.MACRO __CPWRN
	CPI  R@0,LOW(@2)
	LDI  R30,HIGH(@2)
	CPC  R@1,R30
	.ENDM

	.MACRO __ADDB1MN
	SUBI R30,LOW(-@0-(@1))
	.ENDM

	.MACRO __ADDB2MN
	SUBI R26,LOW(-@0-(@1))
	.ENDM

	.MACRO __ADDW1MN
	SUBI R30,LOW(-@0-(@1))
	SBCI R31,HIGH(-@0-(@1))
	.ENDM

	.MACRO __ADDW2MN
	SUBI R26,LOW(-@0-(@1))
	SBCI R27,HIGH(-@0-(@1))
	.ENDM

	.MACRO __ADDW1FN
	SUBI R30,LOW(-2*@0-(@1))
	SBCI R31,HIGH(-2*@0-(@1))
	.ENDM

	.MACRO __ADDD1FN
	SUBI R30,LOW(-2*@0-(@1))
	SBCI R31,HIGH(-2*@0-(@1))
	SBCI R22,BYTE3(-2*@0-(@1))
	.ENDM

	.MACRO __ADDD1N
	SUBI R30,LOW(-@0)
	SBCI R31,HIGH(-@0)
	SBCI R22,BYTE3(-@0)
	SBCI R23,BYTE4(-@0)
	.ENDM

	.MACRO __ADDD2N
	SUBI R26,LOW(-@0)
	SBCI R27,HIGH(-@0)
	SBCI R24,BYTE3(-@0)
	SBCI R25,BYTE4(-@0)
	.ENDM

	.MACRO __SUBD1N
	SUBI R30,LOW(@0)
	SBCI R31,HIGH(@0)
	SBCI R22,BYTE3(@0)
	SBCI R23,BYTE4(@0)
	.ENDM

	.MACRO __SUBD2N
	SUBI R26,LOW(@0)
	SBCI R27,HIGH(@0)
	SBCI R24,BYTE3(@0)
	SBCI R25,BYTE4(@0)
	.ENDM

	.MACRO __ANDBMNN
	LDS  R30,@0+(@1)
	ANDI R30,LOW(@2)
	STS  @0+(@1),R30
	.ENDM

	.MACRO __ANDWMNN
	LDS  R30,@0+(@1)
	ANDI R30,LOW(@2)
	STS  @0+(@1),R30
	LDS  R30,@0+(@1)+1
	ANDI R30,HIGH(@2)
	STS  @0+(@1)+1,R30
	.ENDM

	.MACRO __ANDD1N
	ANDI R30,LOW(@0)
	ANDI R31,HIGH(@0)
	ANDI R22,BYTE3(@0)
	ANDI R23,BYTE4(@0)
	.ENDM

	.MACRO __ANDD2N
	ANDI R26,LOW(@0)
	ANDI R27,HIGH(@0)
	ANDI R24,BYTE3(@0)
	ANDI R25,BYTE4(@0)
	.ENDM

	.MACRO __ORBMNN
	LDS  R30,@0+(@1)
	ORI  R30,LOW(@2)
	STS  @0+(@1),R30
	.ENDM

	.MACRO __ORWMNN
	LDS  R30,@0+(@1)
	ORI  R30,LOW(@2)
	STS  @0+(@1),R30
	LDS  R30,@0+(@1)+1
	ORI  R30,HIGH(@2)
	STS  @0+(@1)+1,R30
	.ENDM

	.MACRO __ORD1N
	ORI  R30,LOW(@0)
	ORI  R31,HIGH(@0)
	ORI  R22,BYTE3(@0)
	ORI  R23,BYTE4(@0)
	.ENDM

	.MACRO __ORD2N
	ORI  R26,LOW(@0)
	ORI  R27,HIGH(@0)
	ORI  R24,BYTE3(@0)
	ORI  R25,BYTE4(@0)
	.ENDM

	.MACRO __DELAY_USB
	LDI  R24,LOW(@0)
__DELAY_USB_LOOP:
	DEC  R24
	BRNE __DELAY_USB_LOOP
	.ENDM

	.MACRO __DELAY_USW
	LDI  R24,LOW(@0)
	LDI  R25,HIGH(@0)
__DELAY_USW_LOOP:
	SBIW R24,1
	BRNE __DELAY_USW_LOOP
	.ENDM

	.MACRO __GETD1S
	LDD  R30,Y+@0
	LDD  R31,Y+@0+1
	LDD  R22,Y+@0+2
	LDD  R23,Y+@0+3
	.ENDM

	.MACRO __GETD2S
	LDD  R26,Y+@0
	LDD  R27,Y+@0+1
	LDD  R24,Y+@0+2
	LDD  R25,Y+@0+3
	.ENDM

	.MACRO __PUTD1S
	STD  Y+@0,R30
	STD  Y+@0+1,R31
	STD  Y+@0+2,R22
	STD  Y+@0+3,R23
	.ENDM

	.MACRO __PUTD2S
	STD  Y+@0,R26
	STD  Y+@0+1,R27
	STD  Y+@0+2,R24
	STD  Y+@0+3,R25
	.ENDM

	.MACRO __PUTDZ2
	STD  Z+@0,R26
	STD  Z+@0+1,R27
	STD  Z+@0+2,R24
	STD  Z+@0+3,R25
	.ENDM

	.MACRO __CLRD1S
	STD  Y+@0,R30
	STD  Y+@0+1,R30
	STD  Y+@0+2,R30
	STD  Y+@0+3,R30
	.ENDM

	.MACRO __POINTB1MN
	LDI  R30,LOW(@0+(@1))
	.ENDM

	.MACRO __POINTW1MN
	LDI  R30,LOW(@0+(@1))
	LDI  R31,HIGH(@0+(@1))
	.ENDM

	.MACRO __POINTD1M
	LDI  R30,LOW(@0)
	LDI  R31,HIGH(@0)
	LDI  R22,BYTE3(@0)
	LDI  R23,BYTE4(@0)
	.ENDM

	.MACRO __POINTW1FN
	LDI  R30,LOW(2*@0+(@1))
	LDI  R31,HIGH(2*@0+(@1))
	.ENDM

	.MACRO __POINTD1FN
	LDI  R30,LOW(2*@0+(@1))
	LDI  R31,HIGH(2*@0+(@1))
	LDI  R22,BYTE3(2*@0+(@1))
	LDI  R23,BYTE4(2*@0+(@1))
	.ENDM

	.MACRO __POINTB2MN
	LDI  R26,LOW(@0+(@1))
	.ENDM

	.MACRO __POINTW2MN
	LDI  R26,LOW(@0+(@1))
	LDI  R27,HIGH(@0+(@1))
	.ENDM

	.MACRO __POINTW2FN
	LDI  R26,LOW(2*@0+(@1))
	LDI  R27,HIGH(2*@0+(@1))
	.ENDM

	.MACRO __POINTD2FN
	LDI  R26,LOW(2*@0+(@1))
	LDI  R27,HIGH(2*@0+(@1))
	LDI  R24,BYTE3(2*@0+(@1))
	LDI  R25,BYTE4(2*@0+(@1))
	.ENDM

	.MACRO __POINTBRM
	LDI  R@0,LOW(@1)
	.ENDM

	.MACRO __POINTWRM
	LDI  R@0,LOW(@2)
	LDI  R@1,HIGH(@2)
	.ENDM

	.MACRO __POINTBRMN
	LDI  R@0,LOW(@1+(@2))
	.ENDM

	.MACRO __POINTWRMN
	LDI  R@0,LOW(@2+(@3))
	LDI  R@1,HIGH(@2+(@3))
	.ENDM

	.MACRO __POINTWRFN
	LDI  R@0,LOW(@2*2+(@3))
	LDI  R@1,HIGH(@2*2+(@3))
	.ENDM

	.MACRO __GETD1N
	LDI  R30,LOW(@0)
	LDI  R31,HIGH(@0)
	LDI  R22,BYTE3(@0)
	LDI  R23,BYTE4(@0)
	.ENDM

	.MACRO __GETD2N
	LDI  R26,LOW(@0)
	LDI  R27,HIGH(@0)
	LDI  R24,BYTE3(@0)
	LDI  R25,BYTE4(@0)
	.ENDM

	.MACRO __GETB1MN
	LDS  R30,@0+(@1)
	.ENDM

	.MACRO __GETB1HMN
	LDS  R31,@0+(@1)
	.ENDM

	.MACRO __GETW1MN
	LDS  R30,@0+(@1)
	LDS  R31,@0+(@1)+1
	.ENDM

	.MACRO __GETD1MN
	LDS  R30,@0+(@1)
	LDS  R31,@0+(@1)+1
	LDS  R22,@0+(@1)+2
	LDS  R23,@0+(@1)+3
	.ENDM

	.MACRO __GETBRMN
	LDS  R@0,@1+(@2)
	.ENDM

	.MACRO __GETWRMN
	LDS  R@0,@2+(@3)
	LDS  R@1,@2+(@3)+1
	.ENDM

	.MACRO __GETWRZ
	LDD  R@0,Z+@2
	LDD  R@1,Z+@2+1
	.ENDM

	.MACRO __GETD2Z
	LDD  R26,Z+@0
	LDD  R27,Z+@0+1
	LDD  R24,Z+@0+2
	LDD  R25,Z+@0+3
	.ENDM

	.MACRO __GETB2MN
	LDS  R26,@0+(@1)
	.ENDM

	.MACRO __GETW2MN
	LDS  R26,@0+(@1)
	LDS  R27,@0+(@1)+1
	.ENDM

	.MACRO __GETD2MN
	LDS  R26,@0+(@1)
	LDS  R27,@0+(@1)+1
	LDS  R24,@0+(@1)+2
	LDS  R25,@0+(@1)+3
	.ENDM

	.MACRO __PUTB1MN
	STS  @0+(@1),R30
	.ENDM

	.MACRO __PUTW1MN
	STS  @0+(@1),R30
	STS  @0+(@1)+1,R31
	.ENDM

	.MACRO __PUTD1MN
	STS  @0+(@1),R30
	STS  @0+(@1)+1,R31
	STS  @0+(@1)+2,R22
	STS  @0+(@1)+3,R23
	.ENDM

	.MACRO __PUTB1EN
	LDI  R26,LOW(@0+(@1))
	LDI  R27,HIGH(@0+(@1))
	RCALL __EEPROMWRB
	.ENDM

	.MACRO __PUTW1EN
	LDI  R26,LOW(@0+(@1))
	LDI  R27,HIGH(@0+(@1))
	RCALL __EEPROMWRW
	.ENDM

	.MACRO __PUTD1EN
	LDI  R26,LOW(@0+(@1))
	LDI  R27,HIGH(@0+(@1))
	RCALL __EEPROMWRD
	.ENDM

	.MACRO __PUTBR0MN
	STS  @0+(@1),R0
	.ENDM

	.MACRO __PUTBMRN
	STS  @0+(@1),R@2
	.ENDM

	.MACRO __PUTWMRN
	STS  @0+(@1),R@2
	STS  @0+(@1)+1,R@3
	.ENDM

	.MACRO __PUTBZR
	STD  Z+@1,R@0
	.ENDM

	.MACRO __PUTWZR
	STD  Z+@2,R@0
	STD  Z+@2+1,R@1
	.ENDM

	.MACRO __GETW1R
	MOV  R30,R@0
	MOV  R31,R@1
	.ENDM

	.MACRO __GETW2R
	MOV  R26,R@0
	MOV  R27,R@1
	.ENDM

	.MACRO __GETWRN
	LDI  R@0,LOW(@2)
	LDI  R@1,HIGH(@2)
	.ENDM

	.MACRO __PUTW1R
	MOV  R@0,R30
	MOV  R@1,R31
	.ENDM

	.MACRO __PUTW2R
	MOV  R@0,R26
	MOV  R@1,R27
	.ENDM

	.MACRO __ADDWRN
	SUBI R@0,LOW(-@2)
	SBCI R@1,HIGH(-@2)
	.ENDM

	.MACRO __ADDWRR
	ADD  R@0,R@2
	ADC  R@1,R@3
	.ENDM

	.MACRO __SUBWRN
	SUBI R@0,LOW(@2)
	SBCI R@1,HIGH(@2)
	.ENDM

	.MACRO __SUBWRR
	SUB  R@0,R@2
	SBC  R@1,R@3
	.ENDM

	.MACRO __ANDWRN
	ANDI R@0,LOW(@2)
	ANDI R@1,HIGH(@2)
	.ENDM

	.MACRO __ANDWRR
	AND  R@0,R@2
	AND  R@1,R@3
	.ENDM

	.MACRO __ORWRN
	ORI  R@0,LOW(@2)
	ORI  R@1,HIGH(@2)
	.ENDM

	.MACRO __ORWRR
	OR   R@0,R@2
	OR   R@1,R@3
	.ENDM

	.MACRO __EORWRR
	EOR  R@0,R@2
	EOR  R@1,R@3
	.ENDM

	.MACRO __GETWRS
	LDD  R@0,Y+@2
	LDD  R@1,Y+@2+1
	.ENDM

	.MACRO __PUTBSR
	STD  Y+@1,R@0
	.ENDM

	.MACRO __PUTWSR
	STD  Y+@2,R@0
	STD  Y+@2+1,R@1
	.ENDM

	.MACRO __MOVEWRR
	MOV  R@0,R@2
	MOV  R@1,R@3
	.ENDM

	.MACRO __INWR
	IN   R@0,@2
	IN   R@1,@2+1
	.ENDM

	.MACRO __OUTWR
	OUT  @2+1,R@1
	OUT  @2,R@0
	.ENDM

	.MACRO __CALL1MN
	LDS  R30,@0+(@1)
	LDS  R31,@0+(@1)+1
	ICALL
	.ENDM

	.MACRO __CALL1FN
	LDI  R30,LOW(2*@0+(@1))
	LDI  R31,HIGH(2*@0+(@1))
	RCALL __GETW1PF
	ICALL
	.ENDM

	.MACRO __CALL2EN
	LDI  R26,LOW(@0+(@1))
	LDI  R27,HIGH(@0+(@1))
	RCALL __EEPROMRDW
	ICALL
	.ENDM

	.MACRO __GETW1STACK
	IN   R26,SPL
	IN   R27,SPH
	ADIW R26,@0+1
	LD   R30,X+
	LD   R31,X
	.ENDM

	.MACRO __GETD1STACK
	IN   R26,SPL
	IN   R27,SPH
	ADIW R26,@0+1
	LD   R30,X+
	LD   R31,X+
	LD   R22,X
	.ENDM

	.MACRO __NBST
	BST  R@0,@1
	IN   R30,SREG
	LDI  R31,0x40
	EOR  R30,R31
	OUT  SREG,R30
	.ENDM


	.MACRO __PUTB1SN
	LDD  R26,Y+@0
	LDD  R27,Y+@0+1
	SUBI R26,LOW(-@1)
	SBCI R27,HIGH(-@1)
	ST   X,R30
	.ENDM

	.MACRO __PUTW1SN
	LDD  R26,Y+@0
	LDD  R27,Y+@0+1
	SUBI R26,LOW(-@1)
	SBCI R27,HIGH(-@1)
	ST   X+,R30
	ST   X,R31
	.ENDM

	.MACRO __PUTD1SN
	LDD  R26,Y+@0
	LDD  R27,Y+@0+1
	SUBI R26,LOW(-@1)
	SBCI R27,HIGH(-@1)
	RCALL __PUTDP1
	.ENDM

	.MACRO __PUTB1SNS
	LDD  R26,Y+@0
	LDD  R27,Y+@0+1
	ADIW R26,@1
	ST   X,R30
	.ENDM

	.MACRO __PUTW1SNS
	LDD  R26,Y+@0
	LDD  R27,Y+@0+1
	ADIW R26,@1
	ST   X+,R30
	ST   X,R31
	.ENDM

	.MACRO __PUTD1SNS
	LDD  R26,Y+@0
	LDD  R27,Y+@0+1
	ADIW R26,@1
	RCALL __PUTDP1
	.ENDM

	.MACRO __PUTB1PMN
	LDS  R26,@0
	LDS  R27,@0+1
	SUBI R26,LOW(-@1)
	SBCI R27,HIGH(-@1)
	ST   X,R30
	.ENDM

	.MACRO __PUTW1PMN
	LDS  R26,@0
	LDS  R27,@0+1
	SUBI R26,LOW(-@1)
	SBCI R27,HIGH(-@1)
	ST   X+,R30
	ST   X,R31
	.ENDM

	.MACRO __PUTD1PMN
	LDS  R26,@0
	LDS  R27,@0+1
	SUBI R26,LOW(-@1)
	SBCI R27,HIGH(-@1)
	RCALL __PUTDP1
	.ENDM

	.MACRO __PUTB1PMNS
	LDS  R26,@0
	LDS  R27,@0+1
	ADIW R26,@1
	ST   X,R30
	.ENDM

	.MACRO __PUTW1PMNS
	LDS  R26,@0
	LDS  R27,@0+1
	ADIW R26,@1
	ST   X+,R30
	ST   X,R31
	.ENDM

	.MACRO __PUTD1PMNS
	LDS  R26,@0
	LDS  R27,@0+1
	ADIW R26,@1
	RCALL __PUTDP1
	.ENDM

	.MACRO __PUTB1RN
	MOVW R26,R@0
	SUBI R26,LOW(-@1)
	SBCI R27,HIGH(-@1)
	ST   X,R30
	.ENDM

	.MACRO __PUTW1RN
	MOVW R26,R@0
	SUBI R26,LOW(-@1)
	SBCI R27,HIGH(-@1)
	ST   X+,R30
	ST   X,R31
	.ENDM

	.MACRO __PUTD1RN
	MOVW R26,R@0
	SUBI R26,LOW(-@1)
	SBCI R27,HIGH(-@1)
	RCALL __PUTDP1
	.ENDM

	.MACRO __PUTB1RNS
	MOVW R26,R@0
	ADIW R26,@1
	ST   X,R30
	.ENDM

	.MACRO __PUTW1RNS
	MOVW R26,R@0
	ADIW R26,@1
	ST   X+,R30
	ST   X,R31
	.ENDM

	.MACRO __PUTD1RNS
	MOVW R26,R@0
	ADIW R26,@1
	RCALL __PUTDP1
	.ENDM

	.MACRO __PUTB1RON
	MOV  R26,R@0
	MOV  R27,R@1
	SUBI R26,LOW(-@2)
	SBCI R27,HIGH(-@2)
	ST   X,R30
	.ENDM

	.MACRO __PUTW1RON
	MOV  R26,R@0
	MOV  R27,R@1
	SUBI R26,LOW(-@2)
	SBCI R27,HIGH(-@2)
	ST   X+,R30
	ST   X,R31
	.ENDM

	.MACRO __PUTD1RON
	MOV  R26,R@0
	MOV  R27,R@1
	SUBI R26,LOW(-@2)
	SBCI R27,HIGH(-@2)
	RCALL __PUTDP1
	.ENDM

	.MACRO __PUTB1RONS
	MOV  R26,R@0
	MOV  R27,R@1
	ADIW R26,@2
	ST   X,R30
	.ENDM

	.MACRO __PUTW1RONS
	MOV  R26,R@0
	MOV  R27,R@1
	ADIW R26,@2
	ST   X+,R30
	ST   X,R31
	.ENDM

	.MACRO __PUTD1RONS
	MOV  R26,R@0
	MOV  R27,R@1
	ADIW R26,@2
	RCALL __PUTDP1
	.ENDM


	.MACRO __GETB1SX
	MOVW R30,R28
	SUBI R30,LOW(-@0)
	SBCI R31,HIGH(-@0)
	LD   R30,Z
	.ENDM

	.MACRO __GETB1HSX
	MOVW R30,R28
	SUBI R30,LOW(-@0)
	SBCI R31,HIGH(-@0)
	LD   R31,Z
	.ENDM

	.MACRO __GETW1SX
	MOVW R30,R28
	SUBI R30,LOW(-@0)
	SBCI R31,HIGH(-@0)
	LD   R0,Z+
	LD   R31,Z
	MOV  R30,R0
	.ENDM

	.MACRO __GETD1SX
	MOVW R30,R28
	SUBI R30,LOW(-@0)
	SBCI R31,HIGH(-@0)
	LD   R0,Z+
	LD   R1,Z+
	LD   R22,Z+
	LD   R23,Z
	MOVW R30,R0
	.ENDM

	.MACRO __GETB2SX
	MOVW R26,R28
	SUBI R26,LOW(-@0)
	SBCI R27,HIGH(-@0)
	LD   R26,X
	.ENDM

	.MACRO __GETW2SX
	MOVW R26,R28
	SUBI R26,LOW(-@0)
	SBCI R27,HIGH(-@0)
	LD   R0,X+
	LD   R27,X
	MOV  R26,R0
	.ENDM

	.MACRO __GETD2SX
	MOVW R26,R28
	SUBI R26,LOW(-@0)
	SBCI R27,HIGH(-@0)
	LD   R0,X+
	LD   R1,X+
	LD   R24,X+
	LD   R25,X
	MOVW R26,R0
	.ENDM

	.MACRO __GETBRSX
	MOVW R30,R28
	SUBI R30,LOW(-@1)
	SBCI R31,HIGH(-@1)
	LD   R@0,Z
	.ENDM

	.MACRO __GETWRSX
	MOVW R30,R28
	SUBI R30,LOW(-@2)
	SBCI R31,HIGH(-@2)
	LD   R@0,Z+
	LD   R@1,Z
	.ENDM

	.MACRO __GETBRSX2
	MOVW R26,R28
	SUBI R26,LOW(-@1)
	SBCI R27,HIGH(-@1)
	LD   R@0,X
	.ENDM

	.MACRO __GETWRSX2
	MOVW R26,R28
	SUBI R26,LOW(-@2)
	SBCI R27,HIGH(-@2)
	LD   R@0,X+
	LD   R@1,X
	.ENDM

	.MACRO __LSLW8SX
	MOVW R30,R28
	SUBI R30,LOW(-@0)
	SBCI R31,HIGH(-@0)
	LD   R31,Z
	CLR  R30
	.ENDM

	.MACRO __PUTB1SX
	MOVW R26,R28
	SUBI R26,LOW(-@0)
	SBCI R27,HIGH(-@0)
	ST   X,R30
	.ENDM

	.MACRO __PUTW1SX
	MOVW R26,R28
	SUBI R26,LOW(-@0)
	SBCI R27,HIGH(-@0)
	ST   X+,R30
	ST   X,R31
	.ENDM

	.MACRO __PUTD1SX
	MOVW R26,R28
	SUBI R26,LOW(-@0)
	SBCI R27,HIGH(-@0)
	ST   X+,R30
	ST   X+,R31
	ST   X+,R22
	ST   X,R23
	.ENDM

	.MACRO __CLRW1SX
	MOVW R26,R28
	SUBI R26,LOW(-@0)
	SBCI R27,HIGH(-@0)
	ST   X+,R30
	ST   X,R30
	.ENDM

	.MACRO __CLRD1SX
	MOVW R26,R28
	SUBI R26,LOW(-@0)
	SBCI R27,HIGH(-@0)
	ST   X+,R30
	ST   X+,R30
	ST   X+,R30
	ST   X,R30
	.ENDM

	.MACRO __PUTB2SX
	MOVW R30,R28
	SUBI R30,LOW(-@0)
	SBCI R31,HIGH(-@0)
	ST   Z,R26
	.ENDM

	.MACRO __PUTW2SX
	MOVW R30,R28
	SUBI R30,LOW(-@0)
	SBCI R31,HIGH(-@0)
	ST   Z+,R26
	ST   Z,R27
	.ENDM

	.MACRO __PUTD2SX
	MOVW R30,R28
	SUBI R30,LOW(-@0)
	SBCI R31,HIGH(-@0)
	ST   Z+,R26
	ST   Z+,R27
	ST   Z+,R24
	ST   Z,R25
	.ENDM

	.MACRO __PUTBSRX
	MOVW R30,R28
	SUBI R30,LOW(-@1)
	SBCI R31,HIGH(-@1)
	ST   Z,R@0
	.ENDM

	.MACRO __PUTWSRX
	MOVW R30,R28
	SUBI R30,LOW(-@2)
	SBCI R31,HIGH(-@2)
	ST   Z+,R@0
	ST   Z,R@1
	.ENDM

	.MACRO __PUTB1SNX
	MOVW R26,R28
	SUBI R26,LOW(-@0)
	SBCI R27,HIGH(-@0)
	LD   R0,X+
	LD   R27,X
	MOV  R26,R0
	SUBI R26,LOW(-@1)
	SBCI R27,HIGH(-@1)
	ST   X,R30
	.ENDM

	.MACRO __PUTW1SNX
	MOVW R26,R28
	SUBI R26,LOW(-@0)
	SBCI R27,HIGH(-@0)
	LD   R0,X+
	LD   R27,X
	MOV  R26,R0
	SUBI R26,LOW(-@1)
	SBCI R27,HIGH(-@1)
	ST   X+,R30
	ST   X,R31
	.ENDM

	.MACRO __PUTD1SNX
	MOVW R26,R28
	SUBI R26,LOW(-@0)
	SBCI R27,HIGH(-@0)
	LD   R0,X+
	LD   R27,X
	MOV  R26,R0
	SUBI R26,LOW(-@1)
	SBCI R27,HIGH(-@1)
	ST   X+,R30
	ST   X+,R31
	ST   X+,R22
	ST   X,R23
	.ENDM

	.MACRO __MULBRR
	MULS R@0,R@1
	MOVW R30,R0
	.ENDM

	.MACRO __MULBRRU
	MUL  R@0,R@1
	MOVW R30,R0
	.ENDM

	.MACRO __MULBRR0
	MULS R@0,R@1
	.ENDM

	.MACRO __MULBRRU0
	MUL  R@0,R@1
	.ENDM

	.MACRO __MULBNWRU
	LDI  R26,@2
	MUL  R26,R@0
	MOVW R30,R0
	MUL  R26,R@1
	ADD  R31,R0
	.ENDM

;NAME DEFINITIONS FOR GLOBAL VARIABLES ALLOCATED TO REGISTERS
	.DEF _STEP=R4
	.DEF _RES=R6
	.DEF _i=R8
	.DEF _c=R10
	.DEF _deg=R12

	.CSEG
	.ORG 0x00

;START OF CODE MARKER
__START_OF_CODE:

;INTERRUPT VECTORS
	RJMP __RESET
	RJMP _ext_int0_isr
	RJMP _ext_int1_isr
	RJMP 0x00
	RJMP 0x00
	RJMP 0x00
	RJMP 0x00
	RJMP 0x00
	RJMP _timer1_ovf_isr
	RJMP 0x00
	RJMP 0x00
	RJMP 0x00
	RJMP 0x00
	RJMP 0x00
	RJMP 0x00
	RJMP 0x00
	RJMP 0x00
	RJMP _twi_int_handler
	RJMP 0x00

_tbl10_G101:
	.DB  0x10,0x27,0xE8,0x3,0x64,0x0,0xA,0x0
	.DB  0x1,0x0
_tbl16_G101:
	.DB  0x0,0x10,0x0,0x1,0x10,0x0,0x1,0x0

;REGISTER BIT VARIABLES INITIALIZATION
__REG_BIT_VARS:
	.DW  0x0000

_0x1B:
	.DB  0x88,0x13,0x1,0x0,0x0,0x0,0x0,0x0
_0x2000060:
	.DB  0x1
_0x2000000:
	.DB  0x2D,0x4E,0x41,0x4E,0x0,0x49,0x4E,0x46
	.DB  0x0
_0x2060003:
	.DB  0x7

__GLOBAL_INI_TBL:
	.DW  0x01
	.DW  0x02
	.DW  __REG_BIT_VARS*2

	.DW  0x08
	.DW  0x04
	.DW  _0x1B*2

	.DW  0x01
	.DW  __seed_G100
	.DW  _0x2000060*2

	.DW  0x01
	.DW  _twi_result
	.DW  _0x2060003*2

_0xFFFFFFFF:
	.DW  0

__RESET:
	CLI
	CLR  R30
	OUT  EECR,R30

;INTERRUPT VECTORS ARE PLACED
;AT THE START OF FLASH
	LDI  R31,1
	OUT  GICR,R31
	OUT  GICR,R30
	OUT  MCUCR,R30

;DISABLE WATCHDOG
	LDI  R31,0x18
	OUT  WDTCR,R31
	OUT  WDTCR,R30

;CLEAR R2-R14
	LDI  R24,(14-2)+1
	LDI  R26,2
	CLR  R27
__CLEAR_REG:
	ST   X+,R30
	DEC  R24
	BRNE __CLEAR_REG

;CLEAR SRAM
	LDI  R24,LOW(__CLEAR_SRAM_SIZE)
	LDI  R25,HIGH(__CLEAR_SRAM_SIZE)
	LDI  R26,__SRAM_START
__CLEAR_SRAM:
	ST   X+,R30
	SBIW R24,1
	BRNE __CLEAR_SRAM

;GLOBAL VARIABLES INITIALIZATION
	LDI  R30,LOW(__GLOBAL_INI_TBL*2)
	LDI  R31,HIGH(__GLOBAL_INI_TBL*2)
__GLOBAL_INI_NEXT:
	LPM  R24,Z+
	LPM  R25,Z+
	SBIW R24,0
	BREQ __GLOBAL_INI_END
	LPM  R26,Z+
	LPM  R27,Z+
	LPM  R0,Z+
	LPM  R1,Z+
	MOVW R22,R30
	MOVW R30,R0
__GLOBAL_INI_LOOP:
	LPM  R0,Z+
	ST   X+,R0
	SBIW R24,1
	BRNE __GLOBAL_INI_LOOP
	MOVW R30,R22
	RJMP __GLOBAL_INI_NEXT
__GLOBAL_INI_END:

;HARDWARE STACK POINTER INITIALIZATION
	LDI  R30,LOW(__SRAM_END-__HEAP_SIZE)
	OUT  SPL,R30
	LDI  R30,HIGH(__SRAM_END-__HEAP_SIZE)
	OUT  SPH,R30

;DATA STACK POINTER INITIALIZATION
	LDI  R28,LOW(__SRAM_START+__DSTACK_SIZE)
	LDI  R29,HIGH(__SRAM_START+__DSTACK_SIZE)

	RJMP _main

	.ESEG
	.ORG 0

	.DSEG
	.ORG 0x160

	.CSEG
;/*****************************************************
;This program was produced by the
;CodeWizardAVR V2.05.3 Standard
;Automatic Program Generator
;© Copyright 1998-2011 Pavel Haiduc, HP InfoTech s.r.l.
;http://www.hpinfotech.com
;
;Project : Slave Program Radar Base
;Version : 1.5
;Date    : 21/07/2014
;Author  : deanzaka
;Company : Solusi247
;Comments:
;
;
;Chip type               : ATmega8
;Program type            : Application
;AVR Core Clock frequency: 11,059200 MHz
;Memory model            : Small
;External RAM size       : 0
;Data Stack size         : 256
;*****************************************************/
;
;#include <mega8.h>
	#ifndef __SLEEP_DEFINED__
	#define __SLEEP_DEFINED__
	.EQU __se_bit=0x80
	.EQU __sm_mask=0x70
	.EQU __sm_powerdown=0x20
	.EQU __sm_powersave=0x30
	.EQU __sm_standby=0x60
	.EQU __sm_ext_standby=0x70
	.EQU __sm_adc_noise_red=0x10
	.SET power_ctrl_reg=mcucr
	#endif
;#include <stdlib.h>
;#include <stdio.h>
;#include <string.h>
;#include <delay.h>
;
;int     STEP    =   5000;
;int   RES     =   1;
;
;unsigned char degchar[7];
;unsigned char rpmchar[7];
;int i = 0;
;int c = 0;
;
;float rpm;
;int deg;
;int degint, rpmint;
;int freq = 0;
;
;// External Interrupt 0 service routine
;interrupt [EXT_INT0] void ext_int0_isr(void)
; 0000 002D {

	.CSEG
_ext_int0_isr:
	ST   -Y,R26
	ST   -Y,R27
	ST   -Y,R30
	ST   -Y,R31
	IN   R30,SREG
	ST   -Y,R30
; 0000 002E    // Place your code here
; 0000 002F     freq++;
	LDI  R26,LOW(_freq)
	LDI  R27,HIGH(_freq)
	LD   R30,X+
	LD   R31,X+
	ADIW R30,1
	ST   -X,R31
	ST   -X,R30
; 0000 0030     if(PIND.4 == 0)
	SBIC 0x10,4
	RJMP _0x3
; 0000 0031     {
; 0000 0032         if(PIND.3 == 0)
	SBIC 0x10,3
	RJMP _0x4
; 0000 0033         deg = deg + 1;
	MOVW R30,R12
	ADIW R30,1
	MOVW R12,R30
; 0000 0034     }
_0x4:
; 0000 0035     else if (PIND.4 == 1)
	RJMP _0x5
_0x3:
	SBIS 0x10,4
	RJMP _0x6
; 0000 0036     {
; 0000 0037         if(PIND.3 == 0)
	SBIC 0x10,3
	RJMP _0x7
; 0000 0038         deg = deg - 1;
	MOVW R30,R12
	SBIW R30,1
	MOVW R12,R30
; 0000 0039     }
_0x7:
; 0000 003A }
_0x6:
_0x5:
	LD   R30,Y+
	OUT  SREG,R30
	LD   R31,Y+
	LD   R30,Y+
	LD   R27,Y+
	LD   R26,Y+
	RETI
;
;// External Interrupt 1 service routine
;interrupt [EXT_INT1] void ext_int1_isr(void)
; 0000 003E {
_ext_int1_isr:
	ST   -Y,R30
	ST   -Y,R31
	IN   R30,SREG
	ST   -Y,R30
; 0000 003F     // Place your code here
; 0000 0040     if(PIND.2 == 1) deg = 0;
	SBIS 0x10,2
	RJMP _0x8
	CLR  R12
	CLR  R13
; 0000 0041     else if (PIND.2 == 0) deg = 5000;
	RJMP _0x9
_0x8:
	SBIC 0x10,2
	RJMP _0xA
	LDI  R30,LOW(5000)
	LDI  R31,HIGH(5000)
	MOVW R12,R30
; 0000 0042 }
_0xA:
_0x9:
	LD   R30,Y+
	OUT  SREG,R30
	LD   R31,Y+
	LD   R30,Y+
	RETI
;
;// Timer1 overflow interrupt service routine
;interrupt [TIM1_OVF] void timer1_ovf_isr(void)
; 0000 0046 {
_timer1_ovf_isr:
	ST   -Y,R0
	ST   -Y,R1
	ST   -Y,R22
	ST   -Y,R23
	ST   -Y,R24
	ST   -Y,R25
	ST   -Y,R26
	ST   -Y,R27
	ST   -Y,R30
	ST   -Y,R31
	IN   R30,SREG
	ST   -Y,R30
; 0000 0047 // Reinitialize Timer1 value
; 0000 0048 TCNT1H=0xD5D0 >> 8;
	RCALL SUBOPT_0x0
; 0000 0049 TCNT1L=0xD5D0 & 0xff;
; 0000 004A // Place your code here
; 0000 004B rpm = (float) freq*60/STEP;
	LDS  R30,_freq
	LDS  R31,_freq+1
	RCALL SUBOPT_0x1
	__GETD2N 0x42700000
	RCALL __MULF12
	MOVW R26,R30
	MOVW R24,R22
	MOVW R30,R4
	RCALL SUBOPT_0x1
	RCALL __DIVF21
	STS  _rpm,R30
	STS  _rpm+1,R31
	STS  _rpm+2,R22
	STS  _rpm+3,R23
; 0000 004C freq=0;
	LDI  R30,LOW(0)
	STS  _freq,R30
	STS  _freq+1,R30
; 0000 004D }
	LD   R30,Y+
	OUT  SREG,R30
	LD   R31,Y+
	LD   R30,Y+
	LD   R27,Y+
	LD   R26,Y+
	LD   R25,Y+
	LD   R24,Y+
	LD   R23,Y+
	LD   R22,Y+
	LD   R1,Y+
	LD   R0,Y+
	RETI
;
;// TWI functions
;#include <twi.h>
;
;// TWI Slave receive buffer
;#define TWI_RX_BUFFER_SIZE 32
;unsigned char twi_rx_buffer[TWI_RX_BUFFER_SIZE];
;
;// TWI Slave transmit buffer
;#define TWI_TX_BUFFER_SIZE 32
;unsigned char twi_tx_buffer[TWI_TX_BUFFER_SIZE];
;
;// TWI Slave receive handler
;// This handler is called everytime a byte
;// is received by the TWI slave
;bool twi_rx_handler(bool rx_complete)
; 0000 005E {
_twi_rx_handler:
; 0000 005F if (twi_result==TWI_RES_OK)
	ST   -Y,R26
;	rx_complete -> Y+0
	LDS  R30,_twi_result
	CPI  R30,0
	BREQ _0xC
; 0000 0060    {
; 0000 0061    // A data byte was received without error
; 0000 0062    // and it was stored at twi_rx_buffer[twi_rx_index]
; 0000 0063    // Place your code here to process the received byte
; 0000 0064    // Note: processing must be VERY FAST, otherwise
; 0000 0065    // it is better to process the received data when
; 0000 0066    // all communication with the master has finished
; 0000 0067    }
; 0000 0068 else
; 0000 0069    {
; 0000 006A    // Receive error
; 0000 006B    // Place your code here to process the error
; 0000 006C    return false; // Stop further reception
	RJMP _0x20C0005
; 0000 006D    }
_0xC:
; 0000 006E 
; 0000 006F // The TWI master has finished transmitting data?
; 0000 0070 if (rx_complete) return false; // Yes, no more bytes to receive
	LD   R30,Y
	CPI  R30,0
	BRNE _0x20C0005
; 0000 0071 
; 0000 0072 // Signal to the TWI master that the TWI slave
; 0000 0073 // is ready to accept more data, as long as
; 0000 0074 // there is enough space in the receive buffer
; 0000 0075 return (twi_rx_index<sizeof(twi_rx_buffer));
	LDS  R26,_twi_rx_index
	LDI  R30,LOW(32)
	RCALL __LTB12U
	RJMP _0x20C0004
; 0000 0076 }
;
;// TWI Slave transmission handler
;// This handler is called for the first time when the
;// transmission from the TWI slave to the master
;// is about to begin, returning the number of bytes
;// that need to be transmitted
;// The second time the handler is called when the
;// transmission has finished
;// In this case it must return 0
;unsigned char twi_tx_handler(bool tx_complete)
; 0000 0081 {
_twi_tx_handler:
; 0000 0082 if (tx_complete==false)
	ST   -Y,R26
;	tx_complete -> Y+0
	LD   R30,Y
	CPI  R30,0
	BRNE _0xE
; 0000 0083 {
; 0000 0084 	// Transmission from slave to master is about to start
; 0000 0085     //twi_tx_buffer[0] = degsend[c];
; 0000 0086     //if(c < 6) c++;
; 0000 0087     //else c = 0;
; 0000 0088 
; 0000 0089 
; 0000 008A     if(twi_rx_buffer[0] == 'D')
	LDS  R26,_twi_rx_buffer
	CPI  R26,LOW(0x44)
	BRNE _0xF
; 0000 008B     {
; 0000 008C         //degint = (int) deg;
; 0000 008D         itoa(deg, degchar);
	ST   -Y,R13
	ST   -Y,R12
	LDI  R26,LOW(_degchar)
	LDI  R27,HIGH(_degchar)
	RCALL _itoa
; 0000 008E         strcpy(twi_tx_buffer, degchar);
	RCALL SUBOPT_0x2
	LDI  R26,LOW(_degchar)
	LDI  R27,HIGH(_degchar)
	RCALL _strcpy
; 0000 008F     }
; 0000 0090     else if(twi_rx_buffer[0] == 'R')
	RJMP _0x10
_0xF:
	LDS  R26,_twi_rx_buffer
	CPI  R26,LOW(0x52)
	BRNE _0x11
; 0000 0091     {
; 0000 0092         //rpmint = (int) rpm;
; 0000 0093         ftoa(rpm, 3, rpmchar);
	LDS  R30,_rpm
	LDS  R31,_rpm+1
	LDS  R22,_rpm+2
	LDS  R23,_rpm+3
	RCALL __PUTPARD1
	LDI  R30,LOW(3)
	ST   -Y,R30
	LDI  R26,LOW(_rpmchar)
	LDI  R27,HIGH(_rpmchar)
	RCALL _ftoa
; 0000 0094         strcpy(twi_tx_buffer, rpmchar);
	RCALL SUBOPT_0x2
	LDI  R26,LOW(_rpmchar)
	LDI  R27,HIGH(_rpmchar)
	RCALL _strcpy
; 0000 0095     }
; 0000 0096     else if(twi_rx_buffer[0] == 'N')
	RJMP _0x12
_0x11:
	LDS  R26,_twi_rx_buffer
	CPI  R26,LOW(0x4E)
	BRNE _0x13
; 0000 0097     {
; 0000 0098         //force reset with watchdogs timer
; 0000 0099 		#asm("cli")
	cli
; 0000 009A 		WDTCR=0x18;
	LDI  R30,LOW(24)
	OUT  0x21,R30
; 0000 009B 		WDTCR=0x08;
	LDI  R30,LOW(8)
	OUT  0x21,R30
; 0000 009C 		while(1);
_0x14:
	RJMP _0x14
; 0000 009D     }
; 0000 009E 
; 0000 009F 
; 0000 00A0     //strcpy(twi_tx_buffer, " COBA ");
; 0000 00A1     return strlen(twi_tx_buffer);
_0x13:
_0x12:
_0x10:
	LDI  R26,LOW(_twi_tx_buffer)
	LDI  R27,HIGH(_twi_tx_buffer)
	RCALL _strlen
	RJMP _0x20C0004
; 0000 00A2 }
; 0000 00A3 
; 0000 00A4 
; 0000 00A5 // Transmission from slave to master has finished
; 0000 00A6 // Place code here to eventually process data from
; 0000 00A7 // the twi_rx_buffer, if it wasn't yet processed
; 0000 00A8 // in the twi_rx_handler
; 0000 00A9 
; 0000 00AA // No more bytes to send in this transaction
; 0000 00AB return 0;
_0xE:
_0x20C0005:
	LDI  R30,LOW(0)
_0x20C0004:
	ADIW R28,1
	RET
; 0000 00AC }
;
;// Declare your global variables here
;
;void main(void)
; 0000 00B1 {
_main:
; 0000 00B2 // Declare your local variables here
; 0000 00B3 
; 0000 00B4 // Timer/Counter 1 initialization
; 0000 00B5 // Clock source: System Clock
; 0000 00B6 // Clock value: 10,800 kHz
; 0000 00B7 // Mode: Normal top=0xFFFF
; 0000 00B8 // OC1A output: Discon.
; 0000 00B9 // OC1B output: Discon.
; 0000 00BA // Noise Canceler: Off
; 0000 00BB // Input Capture on Falling Edge
; 0000 00BC // Timer1 Overflow Interrupt: On
; 0000 00BD // Input Capture Interrupt: Off
; 0000 00BE // Compare A Match Interrupt: Off
; 0000 00BF // Compare B Match Interrupt: Off
; 0000 00C0 TCCR1A=0x00;
	LDI  R30,LOW(0)
	OUT  0x2F,R30
; 0000 00C1 TCCR1B=0x05;
	LDI  R30,LOW(5)
	OUT  0x2E,R30
; 0000 00C2 TCNT1H=0xD5;
	RCALL SUBOPT_0x0
; 0000 00C3 TCNT1L=0xD0;
; 0000 00C4 ICR1H=0x00;
	LDI  R30,LOW(0)
	OUT  0x27,R30
; 0000 00C5 ICR1L=0x00;
	OUT  0x26,R30
; 0000 00C6 OCR1AH=0x00;
	OUT  0x2B,R30
; 0000 00C7 OCR1AL=0x00;
	OUT  0x2A,R30
; 0000 00C8 OCR1BH=0x00;
	OUT  0x29,R30
; 0000 00C9 OCR1BL=0x00;
	OUT  0x28,R30
; 0000 00CA 
; 0000 00CB // External Interrupt(s) initialization
; 0000 00CC // INT0: On
; 0000 00CD // INT0 Mode: Rising Edge
; 0000 00CE // INT1: On
; 0000 00CF // INT1 Mode: Rising Edge
; 0000 00D0 GICR|=0xC0;
	IN   R30,0x3B
	ORI  R30,LOW(0xC0)
	OUT  0x3B,R30
; 0000 00D1 MCUCR=0x0F;
	LDI  R30,LOW(15)
	OUT  0x35,R30
; 0000 00D2 GIFR=0xC0;
	LDI  R30,LOW(192)
	OUT  0x3A,R30
; 0000 00D3 
; 0000 00D4 // Timer(s)/Counter(s) Interrupt(s) initialization
; 0000 00D5 TIMSK=0x04;
	LDI  R30,LOW(4)
	OUT  0x39,R30
; 0000 00D6 
; 0000 00D7 // Analog Comparator initialization
; 0000 00D8 // Analog Comparator: Off
; 0000 00D9 // Analog Comparator Input Capture by Timer/Counter 1: Off
; 0000 00DA ACSR=0x80;
	LDI  R30,LOW(128)
	OUT  0x8,R30
; 0000 00DB SFIOR=0x00;
	LDI  R30,LOW(0)
	OUT  0x30,R30
; 0000 00DC 
; 0000 00DD // SPI initialization
; 0000 00DE // SPI disabled
; 0000 00DF SPCR=0x00;
	OUT  0xD,R30
; 0000 00E0 
; 0000 00E1 // TWI initialization
; 0000 00E2 // Mode: TWI Slave
; 0000 00E3 // Match Any Slave Address: On
; 0000 00E4 twi_slave_init(true,0x00,twi_rx_buffer,1,twi_tx_buffer,twi_rx_handler,twi_tx_handler);
	LDI  R30,LOW(1)
	ST   -Y,R30
	LDI  R30,LOW(0)
	ST   -Y,R30
	LDI  R30,LOW(_twi_rx_buffer)
	LDI  R31,HIGH(_twi_rx_buffer)
	RCALL SUBOPT_0x3
	LDI  R30,LOW(1)
	ST   -Y,R30
	RCALL SUBOPT_0x2
	LDI  R30,LOW(_twi_rx_handler)
	LDI  R31,HIGH(_twi_rx_handler)
	RCALL SUBOPT_0x3
	LDI  R26,LOW(_twi_tx_handler)
	LDI  R27,HIGH(_twi_tx_handler)
	RCALL _twi_slave_init
; 0000 00E5 
; 0000 00E6 // Global enable interrupts
; 0000 00E7 #asm("sei")
	sei
; 0000 00E8 
; 0000 00E9 while (1)
_0x17:
; 0000 00EA {
; 0000 00EB     // Place your code here
; 0000 00EC }
	RJMP _0x17
; 0000 00ED }
_0x1A:
	RJMP _0x1A

	.CSEG
_itoa:
	RCALL SUBOPT_0x4
    ld   r26,y+
    ld   r27,y+
    ld   r30,y+
    ld   r31,y+
    adiw r30,0
    brpl __itoa0
    com  r30
    com  r31
    adiw r30,1
    ldi  r22,'-'
    st   x+,r22
__itoa0:
    clt
    ldi  r24,low(10000)
    ldi  r25,high(10000)
    rcall __itoa1
    ldi  r24,low(1000)
    ldi  r25,high(1000)
    rcall __itoa1
    ldi  r24,100
    clr  r25
    rcall __itoa1
    ldi  r24,10
    rcall __itoa1
    mov  r22,r30
    rcall __itoa5
    clr  r22
    st   x,r22
    ret

__itoa1:
    clr	 r22
__itoa2:
    cp   r30,r24
    cpc  r31,r25
    brlo __itoa3
    inc  r22
    sub  r30,r24
    sbc  r31,r25
    brne __itoa2
__itoa3:
    tst  r22
    brne __itoa4
    brts __itoa5
    ret
__itoa4:
    set
__itoa5:
    subi r22,-0x30
    st   x+,r22
    ret
_ftoa:
	RCALL SUBOPT_0x4
	SBIW R28,4
	LDI  R30,LOW(0)
	ST   Y,R30
	STD  Y+1,R30
	STD  Y+2,R30
	LDI  R30,LOW(63)
	STD  Y+3,R30
	RCALL __SAVELOCR2
	LDD  R30,Y+11
	LDD  R31,Y+11+1
	CPI  R30,LOW(0xFFFF)
	LDI  R26,HIGH(0xFFFF)
	CPC  R31,R26
	BRNE _0x200000D
	RCALL SUBOPT_0x5
	__POINTW2FN _0x2000000,0
	RCALL _strcpyf
	RJMP _0x20C0003
_0x200000D:
	CPI  R30,LOW(0x7FFF)
	LDI  R26,HIGH(0x7FFF)
	CPC  R31,R26
	BRNE _0x200000C
	RCALL SUBOPT_0x5
	__POINTW2FN _0x2000000,1
	RCALL _strcpyf
	RJMP _0x20C0003
_0x200000C:
	LDD  R26,Y+12
	TST  R26
	BRPL _0x200000F
	RCALL SUBOPT_0x6
	RCALL __ANEGF1
	RCALL SUBOPT_0x7
	RCALL SUBOPT_0x8
	LDI  R30,LOW(45)
	ST   X,R30
_0x200000F:
	LDD  R26,Y+8
	CPI  R26,LOW(0x7)
	BRLO _0x2000010
	LDI  R30,LOW(6)
	STD  Y+8,R30
_0x2000010:
	LDD  R17,Y+8
_0x2000011:
	MOV  R30,R17
	SUBI R17,1
	CPI  R30,0
	BREQ _0x2000013
	RCALL SUBOPT_0x9
	RCALL SUBOPT_0xA
	RCALL SUBOPT_0xB
	RJMP _0x2000011
_0x2000013:
	RCALL SUBOPT_0xC
	RCALL __ADDF12
	RCALL SUBOPT_0x7
	LDI  R17,LOW(0)
	__GETD1N 0x3F800000
	RCALL SUBOPT_0xB
_0x2000014:
	RCALL SUBOPT_0xC
	RCALL __CMPF12
	BRLO _0x2000016
	RCALL SUBOPT_0x9
	RCALL SUBOPT_0xD
	RCALL SUBOPT_0xB
	SUBI R17,-LOW(1)
	CPI  R17,39
	BRLO _0x2000017
	RCALL SUBOPT_0x5
	__POINTW2FN _0x2000000,5
	RCALL _strcpyf
	RJMP _0x20C0003
_0x2000017:
	RJMP _0x2000014
_0x2000016:
	CPI  R17,0
	BRNE _0x2000018
	RCALL SUBOPT_0x8
	LDI  R30,LOW(48)
	ST   X,R30
	RJMP _0x2000019
_0x2000018:
_0x200001A:
	MOV  R30,R17
	SUBI R17,1
	CPI  R30,0
	BREQ _0x200001C
	RCALL SUBOPT_0x9
	RCALL SUBOPT_0xA
	__GETD2N 0x3F000000
	RCALL __ADDF12
	MOVW R26,R30
	MOVW R24,R22
	RCALL _floor
	RCALL SUBOPT_0xB
	RCALL SUBOPT_0xC
	RCALL __DIVF21
	RCALL __CFD1U
	MOV  R16,R30
	RCALL SUBOPT_0x8
	RCALL SUBOPT_0xE
	RCALL SUBOPT_0x9
	RCALL SUBOPT_0x1
	RCALL __MULF12
	RCALL SUBOPT_0xF
	RCALL __SWAPD12
	RCALL __SUBF12
	RCALL SUBOPT_0x7
	RJMP _0x200001A
_0x200001C:
_0x2000019:
	LDD  R30,Y+8
	CPI  R30,0
	BREQ _0x20C0002
	RCALL SUBOPT_0x8
	LDI  R30,LOW(46)
	ST   X,R30
_0x200001E:
	LDD  R30,Y+8
	SUBI R30,LOW(1)
	STD  Y+8,R30
	SUBI R30,-LOW(1)
	BREQ _0x2000020
	RCALL SUBOPT_0xF
	RCALL SUBOPT_0xD
	RCALL SUBOPT_0x7
	RCALL SUBOPT_0x6
	RCALL __CFD1U
	MOV  R16,R30
	RCALL SUBOPT_0x8
	RCALL SUBOPT_0xE
	RCALL SUBOPT_0xF
	RCALL SUBOPT_0x1
	RCALL __SWAPD12
	RCALL __SUBF12
	RCALL SUBOPT_0x7
	RJMP _0x200001E
_0x2000020:
_0x20C0002:
	LDD  R26,Y+6
	LDD  R27,Y+6+1
	LDI  R30,LOW(0)
	ST   X,R30
_0x20C0003:
	RCALL __LOADLOCR2
	ADIW R28,13
	RET

	.DSEG

	.CSEG
	#ifndef __SLEEP_DEFINED__
	#define __SLEEP_DEFINED__
	.EQU __se_bit=0x80
	.EQU __sm_mask=0x70
	.EQU __sm_powerdown=0x20
	.EQU __sm_powersave=0x30
	.EQU __sm_standby=0x60
	.EQU __sm_ext_standby=0x70
	.EQU __sm_adc_noise_red=0x10
	.SET power_ctrl_reg=mcucr
	#endif

	.CSEG

	.CSEG
_strcpy:
	RCALL SUBOPT_0x4
    ld   r30,y+
    ld   r31,y+
    ld   r26,y+
    ld   r27,y+
    movw r24,r26
strcpy0:
    ld   r22,z+
    st   x+,r22
    tst  r22
    brne strcpy0
    movw r30,r24
    ret
_strcpyf:
	RCALL SUBOPT_0x4
    ld   r30,y+
    ld   r31,y+
    ld   r26,y+
    ld   r27,y+
    movw r24,r26
strcpyf0:
	lpm  r0,z+
    st   x+,r0
    tst  r0
    brne strcpyf0
    movw r30,r24
    ret
_strlen:
	RCALL SUBOPT_0x4
    ld   r26,y+
    ld   r27,y+
    clr  r30
    clr  r31
strlen0:
    ld   r22,x+
    tst  r22
    breq strlen1
    adiw r30,1
    rjmp strlen0
strlen1:
    ret
	#ifndef __SLEEP_DEFINED__
	#define __SLEEP_DEFINED__
	.EQU __se_bit=0x80
	.EQU __sm_mask=0x70
	.EQU __sm_powerdown=0x20
	.EQU __sm_powersave=0x30
	.EQU __sm_standby=0x60
	.EQU __sm_ext_standby=0x70
	.EQU __sm_adc_noise_red=0x10
	.SET power_ctrl_reg=mcucr
	#endif

	.DSEG

	.CSEG
_twi_slave_init:
	RCALL SUBOPT_0x4
	SET
	BLD  R2,1
	LDI  R30,LOW(7)
	STS  _twi_result,R30
	LDD  R30,Y+7
	LDD  R31,Y+7+1
	STS  _twi_rx_buffer_G103,R30
	STS  _twi_rx_buffer_G103+1,R31
	LDD  R30,Y+6
	STS  _twi_rx_buffer_size_G103,R30
	LDD  R30,Y+4
	LDD  R31,Y+4+1
	STS  _twi_tx_buffer_G103,R30
	STS  _twi_tx_buffer_G103+1,R31
	LDD  R30,Y+2
	LDD  R31,Y+2+1
	STS  _twi_slave_rx_handler_G103,R30
	STS  _twi_slave_rx_handler_G103+1,R31
	LD   R30,Y
	LDD  R31,Y+1
	STS  _twi_slave_tx_handler_G103,R30
	STS  _twi_slave_tx_handler_G103+1,R31
	IN   R30,0x15
	ORI  R30,LOW(0x30)
	OUT  0x15,R30
	LDD  R30,Y+10
	CPI  R30,0
	BREQ _0x2060012
	LDI  R30,LOW(1)
	RJMP _0x2060066
_0x2060012:
	LDD  R30,Y+9
	LSL  R30
_0x2060066:
	OUT  0x2,R30
	IN   R30,0x36
	ANDI R30,LOW(0x80)
	ORI  R30,LOW(0x45)
	OUT  0x36,R30
	ADIW R28,11
	RET
_twi_int_handler:
	ST   -Y,R0
	ST   -Y,R1
	ST   -Y,R15
	ST   -Y,R22
	ST   -Y,R23
	ST   -Y,R24
	ST   -Y,R25
	ST   -Y,R26
	ST   -Y,R27
	ST   -Y,R30
	ST   -Y,R31
	IN   R30,SREG
	ST   -Y,R30
	RCALL __SAVELOCR6
	LDS  R17,_twi_rx_index
	LDS  R16,_twi_tx_index
	LDS  R19,_bytes_to_tx_G103
	LDS  R18,_twi_result
	MOV  R30,R17
	LDS  R26,_twi_rx_buffer_G103
	LDS  R27,_twi_rx_buffer_G103+1
	LDI  R31,0
	ADD  R30,R26
	ADC  R31,R27
	MOVW R20,R30
	IN   R30,0x1
	ANDI R30,LOW(0xF8)
	CPI  R30,LOW(0x8)
	BRNE _0x2060017
	LDI  R18,LOW(0)
	RJMP _0x2060018
_0x2060017:
	CPI  R30,LOW(0x10)
	BRNE _0x2060019
_0x2060018:
	LDS  R30,_slave_address_G103
	RJMP _0x2060067
_0x2060019:
	CPI  R30,LOW(0x18)
	BREQ _0x206001D
	CPI  R30,LOW(0x28)
	BRNE _0x206001E
_0x206001D:
	CP   R16,R19
	BRSH _0x206001F
	MOV  R30,R16
	SUBI R16,-1
	LDS  R26,_twi_tx_buffer_G103
	LDS  R27,_twi_tx_buffer_G103+1
	LDI  R31,0
	ADD  R26,R30
	ADC  R27,R31
	LD   R30,X
_0x2060067:
	OUT  0x3,R30
	IN   R30,0x36
	ANDI R30,LOW(0xF)
	ORI  R30,0x80
	OUT  0x36,R30
	RJMP _0x2060020
_0x206001F:
	LDS  R30,_bytes_to_rx_G103
	CP   R17,R30
	BRSH _0x2060021
	LDS  R30,_slave_address_G103
	ORI  R30,1
	STS  _slave_address_G103,R30
	CLT
	BLD  R2,0
	IN   R30,0x36
	ANDI R30,LOW(0xF)
	ORI  R30,LOW(0xA0)
	OUT  0x36,R30
	RJMP _0x2060016
_0x2060021:
	RJMP _0x2060022
_0x2060020:
	RJMP _0x2060016
_0x206001E:
	CPI  R30,LOW(0x50)
	BRNE _0x2060023
	IN   R30,0x3
	MOVW R26,R20
	ST   X,R30
	SUBI R17,-LOW(1)
	RJMP _0x2060024
_0x2060023:
	CPI  R30,LOW(0x40)
	BRNE _0x2060025
_0x2060024:
	LDS  R30,_bytes_to_rx_G103
	SUBI R30,LOW(1)
	CP   R17,R30
	BRLO _0x2060026
	IN   R30,0x36
	ANDI R30,LOW(0xF)
	ORI  R30,0x80
	RJMP _0x2060068
_0x2060026:
	IN   R30,0x36
	ANDI R30,LOW(0xF)
	ORI  R30,LOW(0xC0)
_0x2060068:
	OUT  0x36,R30
	RJMP _0x2060016
_0x2060025:
	CPI  R30,LOW(0x58)
	BRNE _0x2060028
	IN   R30,0x3
	MOVW R26,R20
	ST   X,R30
	SUBI R17,-LOW(1)
	RJMP _0x2060029
_0x2060028:
	CPI  R30,LOW(0x20)
	BRNE _0x206002A
_0x2060029:
	RJMP _0x206002B
_0x206002A:
	CPI  R30,LOW(0x30)
	BRNE _0x206002C
_0x206002B:
	RJMP _0x206002D
_0x206002C:
	CPI  R30,LOW(0x48)
	BRNE _0x206002E
_0x206002D:
	CPI  R18,0
	BRNE _0x206002F
	SBRS R2,0
	RJMP _0x2060030
	CP   R16,R19
	BRLO _0x2060032
	RJMP _0x2060033
_0x2060030:
	LDS  R30,_bytes_to_rx_G103
	CP   R17,R30
	BRSH _0x2060034
_0x2060032:
	LDI  R18,LOW(4)
_0x2060034:
_0x2060033:
_0x206002F:
_0x2060022:
	RJMP _0x2060069
_0x206002E:
	CPI  R30,LOW(0x38)
	BRNE _0x2060037
	LDI  R18,LOW(2)
	IN   R30,0x36
	ANDI R30,LOW(0xF)
	ORI  R30,0x80
	RJMP _0x206006A
_0x2060037:
	CPI  R30,LOW(0x68)
	BREQ _0x206003A
	CPI  R30,LOW(0x78)
	BRNE _0x206003B
_0x206003A:
	LDI  R18,LOW(2)
	RJMP _0x206003C
_0x206003B:
	CPI  R30,LOW(0x60)
	BREQ _0x206003F
	CPI  R30,LOW(0x70)
	BRNE _0x2060040
_0x206003F:
	LDI  R18,LOW(0)
_0x206003C:
	LDI  R17,LOW(0)
	CLT
	BLD  R2,0
	LDS  R30,_twi_rx_buffer_size_G103
	CPI  R30,0
	BRNE _0x2060041
	LDI  R18,LOW(1)
	IN   R30,0x36
	ANDI R30,LOW(0xF)
	ORI  R30,0x80
	RJMP _0x206006B
_0x2060041:
	IN   R30,0x36
	ANDI R30,LOW(0xF)
	ORI  R30,LOW(0xC0)
_0x206006B:
	OUT  0x36,R30
	RJMP _0x2060016
_0x2060040:
	CPI  R30,LOW(0x80)
	BREQ _0x2060044
	CPI  R30,LOW(0x90)
	BRNE _0x2060045
_0x2060044:
	SBRS R2,0
	RJMP _0x2060046
	LDI  R18,LOW(1)
	RJMP _0x2060047
_0x2060046:
	IN   R30,0x3
	MOVW R26,R20
	ST   X,R30
	SUBI R17,-LOW(1)
	LDS  R30,_twi_rx_buffer_size_G103
	CP   R17,R30
	BRSH _0x2060048
	LDS  R30,_twi_slave_rx_handler_G103
	LDS  R31,_twi_slave_rx_handler_G103+1
	SBIW R30,0
	BRNE _0x2060049
	LDI  R18,LOW(6)
	RJMP _0x2060047
_0x2060049:
	LDI  R26,LOW(0)
	__CALL1MN _twi_slave_rx_handler_G103,0
	CPI  R30,0
	BREQ _0x206004A
	IN   R30,0x36
	ANDI R30,LOW(0xF)
	ORI  R30,LOW(0xC0)
	OUT  0x36,R30
	RJMP _0x2060016
_0x206004A:
	RJMP _0x206004B
_0x2060048:
	SET
	BLD  R2,0
_0x206004B:
	RJMP _0x206004C
_0x2060045:
	CPI  R30,LOW(0x88)
	BRNE _0x206004D
_0x206004C:
	RJMP _0x206004E
_0x206004D:
	CPI  R30,LOW(0x98)
	BRNE _0x206004F
_0x206004E:
	IN   R30,0x36
	ANDI R30,LOW(0xF)
	ORI  R30,0x80
	OUT  0x36,R30
	RJMP _0x2060016
_0x206004F:
	CPI  R30,LOW(0xA0)
	BRNE _0x2060050
	IN   R30,0x36
	ANDI R30,LOW(0xF)
	ORI  R30,LOW(0xC0)
	OUT  0x36,R30
	SET
	BLD  R2,1
	LDS  R30,_twi_slave_rx_handler_G103
	LDS  R31,_twi_slave_rx_handler_G103+1
	SBIW R30,0
	BREQ _0x2060051
	LDI  R26,LOW(1)
	__CALL1MN _twi_slave_rx_handler_G103,0
	RJMP _0x2060052
_0x2060051:
	LDI  R18,LOW(6)
_0x2060052:
	RJMP _0x2060016
_0x2060050:
	CPI  R30,LOW(0xB0)
	BRNE _0x2060053
	LDI  R18,LOW(2)
	RJMP _0x2060054
_0x2060053:
	CPI  R30,LOW(0xA8)
	BRNE _0x2060055
_0x2060054:
	LDS  R30,_twi_slave_tx_handler_G103
	LDS  R31,_twi_slave_tx_handler_G103+1
	SBIW R30,0
	BREQ _0x2060056
	LDI  R26,LOW(0)
	__CALL1MN _twi_slave_tx_handler_G103,0
	MOV  R19,R30
	CPI  R30,0
	BREQ _0x2060058
	LDI  R18,LOW(0)
	RJMP _0x2060059
_0x2060056:
_0x2060058:
	LDI  R18,LOW(6)
	RJMP _0x2060047
_0x2060059:
	LDI  R16,LOW(0)
	CLT
	BLD  R2,0
	RJMP _0x206005A
_0x2060055:
	CPI  R30,LOW(0xB8)
	BRNE _0x206005B
_0x206005A:
	SBRS R2,0
	RJMP _0x206005C
	LDI  R18,LOW(1)
	RJMP _0x2060047
_0x206005C:
	MOV  R30,R16
	SUBI R16,-1
	LDS  R26,_twi_tx_buffer_G103
	LDS  R27,_twi_tx_buffer_G103+1
	LDI  R31,0
	ADD  R26,R30
	ADC  R27,R31
	LD   R30,X
	OUT  0x3,R30
	CP   R16,R19
	BRSH _0x206005D
	IN   R30,0x36
	ANDI R30,LOW(0xF)
	ORI  R30,LOW(0xC0)
	RJMP _0x206006C
_0x206005D:
	SET
	BLD  R2,0
	IN   R30,0x36
	ANDI R30,LOW(0xF)
	ORI  R30,0x80
_0x206006C:
	OUT  0x36,R30
	RJMP _0x2060016
_0x206005B:
	CPI  R30,LOW(0xC0)
	BREQ _0x2060060
	CPI  R30,LOW(0xC8)
	BRNE _0x2060061
_0x2060060:
	IN   R30,0x36
	ANDI R30,LOW(0xF)
	ORI  R30,LOW(0xC0)
	OUT  0x36,R30
	LDS  R30,_twi_slave_tx_handler_G103
	LDS  R31,_twi_slave_tx_handler_G103+1
	SBIW R30,0
	BREQ _0x2060062
	LDI  R26,LOW(1)
	__CALL1MN _twi_slave_tx_handler_G103,0
_0x2060062:
	RJMP _0x2060035
_0x2060061:
	CPI  R30,0
	BRNE _0x2060016
	LDI  R18,LOW(3)
_0x2060047:
_0x2060069:
	IN   R30,0x36
	ANDI R30,LOW(0xF)
	ORI  R30,LOW(0xD0)
_0x206006A:
	OUT  0x36,R30
_0x2060035:
	SET
	BLD  R2,1
_0x2060016:
	STS  _twi_rx_index,R17
	STS  _twi_tx_index,R16
	STS  _twi_result,R18
	STS  _bytes_to_tx_G103,R19
	RCALL __LOADLOCR6
	ADIW R28,6
	LD   R30,Y+
	OUT  SREG,R30
	LD   R31,Y+
	LD   R30,Y+
	LD   R27,Y+
	LD   R26,Y+
	LD   R25,Y+
	LD   R24,Y+
	LD   R23,Y+
	LD   R22,Y+
	LD   R15,Y+
	LD   R1,Y+
	LD   R0,Y+
	RETI

	.CSEG

	.CSEG
_ftrunc:
	RCALL __PUTPARD2
   ldd  r23,y+3
   ldd  r22,y+2
   ldd  r31,y+1
   ld   r30,y
   bst  r23,7
   lsl  r23
   sbrc r22,7
   sbr  r23,1
   mov  r25,r23
   subi r25,0x7e
   breq __ftrunc0
   brcs __ftrunc0
   cpi  r25,24
   brsh __ftrunc1
   clr  r26
   clr  r27
   clr  r24
__ftrunc2:
   sec
   ror  r24
   ror  r27
   ror  r26
   dec  r25
   brne __ftrunc2
   and  r30,r26
   and  r31,r27
   and  r22,r24
   rjmp __ftrunc1
__ftrunc0:
   clt
   clr  r23
   clr  r30
   clr  r31
   clr  r22
__ftrunc1:
   cbr  r22,0x80
   lsr  r23
   brcc __ftrunc3
   sbr  r22,0x80
__ftrunc3:
   bld  r23,7
   ld   r26,y+
   ld   r27,y+
   ld   r24,y+
   ld   r25,y+
   cp   r30,r26
   cpc  r31,r27
   cpc  r22,r24
   cpc  r23,r25
   bst  r25,7
   ret
_floor:
	RCALL __PUTPARD2
	RCALL __GETD2S0
	RCALL _ftrunc
	RCALL __PUTD1S0
    brne __floor1
__floor0:
	RCALL SUBOPT_0x10
	RJMP _0x20C0001
__floor1:
    brtc __floor0
	RCALL SUBOPT_0x10
	__GETD2N 0x3F800000
	RCALL __SUBF12
_0x20C0001:
	ADIW R28,4
	RET

	.DSEG
_degchar:
	.BYTE 0x7
_rpmchar:
	.BYTE 0x7
_rpm:
	.BYTE 0x4
_freq:
	.BYTE 0x2
_twi_tx_index:
	.BYTE 0x1
_twi_rx_index:
	.BYTE 0x1
_twi_result:
	.BYTE 0x1
_twi_rx_buffer:
	.BYTE 0x20
_twi_tx_buffer:
	.BYTE 0x20
__seed_G100:
	.BYTE 0x4
_slave_address_G103:
	.BYTE 0x1
_twi_tx_buffer_G103:
	.BYTE 0x2
_bytes_to_tx_G103:
	.BYTE 0x1
_twi_rx_buffer_G103:
	.BYTE 0x2
_bytes_to_rx_G103:
	.BYTE 0x1
_twi_rx_buffer_size_G103:
	.BYTE 0x1
_twi_slave_rx_handler_G103:
	.BYTE 0x2
_twi_slave_tx_handler_G103:
	.BYTE 0x2

	.CSEG
;OPTIMIZER ADDED SUBROUTINE, CALLED 2 TIMES, CODE SIZE REDUCTION:1 WORDS
SUBOPT_0x0:
	LDI  R30,LOW(213)
	OUT  0x2D,R30
	LDI  R30,LOW(208)
	OUT  0x2C,R30
	RET

;OPTIMIZER ADDED SUBROUTINE, CALLED 4 TIMES, CODE SIZE REDUCTION:4 WORDS
SUBOPT_0x1:
	RCALL __CWD1
	RCALL __CDF1
	RET

;OPTIMIZER ADDED SUBROUTINE, CALLED 3 TIMES, CODE SIZE REDUCTION:4 WORDS
SUBOPT_0x2:
	LDI  R30,LOW(_twi_tx_buffer)
	LDI  R31,HIGH(_twi_tx_buffer)
	ST   -Y,R31
	ST   -Y,R30
	RET

;OPTIMIZER ADDED SUBROUTINE, CALLED 5 TIMES, CODE SIZE REDUCTION:2 WORDS
SUBOPT_0x3:
	ST   -Y,R31
	ST   -Y,R30
	RET

;OPTIMIZER ADDED SUBROUTINE, CALLED 6 TIMES, CODE SIZE REDUCTION:3 WORDS
SUBOPT_0x4:
	ST   -Y,R27
	ST   -Y,R26
	RET

;OPTIMIZER ADDED SUBROUTINE, CALLED 3 TIMES, CODE SIZE REDUCTION:2 WORDS
SUBOPT_0x5:
	LDD  R30,Y+6
	LDD  R31,Y+6+1
	RJMP SUBOPT_0x3

;OPTIMIZER ADDED SUBROUTINE, CALLED 2 TIMES, CODE SIZE REDUCTION:1 WORDS
SUBOPT_0x6:
	__GETD1S 9
	RET

;OPTIMIZER ADDED SUBROUTINE, CALLED 5 TIMES, CODE SIZE REDUCTION:10 WORDS
SUBOPT_0x7:
	__PUTD1S 9
	RET

;OPTIMIZER ADDED SUBROUTINE, CALLED 5 TIMES, CODE SIZE REDUCTION:18 WORDS
SUBOPT_0x8:
	LDD  R26,Y+6
	LDD  R27,Y+6+1
	ADIW R26,1
	STD  Y+6,R26
	STD  Y+6+1,R27
	SBIW R26,1
	RET

;OPTIMIZER ADDED SUBROUTINE, CALLED 4 TIMES, CODE SIZE REDUCTION:7 WORDS
SUBOPT_0x9:
	__GETD2S 2
	RET

;OPTIMIZER ADDED SUBROUTINE, CALLED 2 TIMES, CODE SIZE REDUCTION:2 WORDS
SUBOPT_0xA:
	__GETD1N 0x3DCCCCCD
	RCALL __MULF12
	RET

;OPTIMIZER ADDED SUBROUTINE, CALLED 4 TIMES, CODE SIZE REDUCTION:7 WORDS
SUBOPT_0xB:
	__PUTD1S 2
	RET

;OPTIMIZER ADDED SUBROUTINE, CALLED 3 TIMES, CODE SIZE REDUCTION:12 WORDS
SUBOPT_0xC:
	__GETD1S 2
	__GETD2S 9
	RET

;OPTIMIZER ADDED SUBROUTINE, CALLED 2 TIMES, CODE SIZE REDUCTION:2 WORDS
SUBOPT_0xD:
	__GETD1N 0x41200000
	RCALL __MULF12
	RET

;OPTIMIZER ADDED SUBROUTINE, CALLED 2 TIMES, CODE SIZE REDUCTION:4 WORDS
SUBOPT_0xE:
	MOV  R30,R16
	SUBI R30,-LOW(48)
	ST   X,R30
	MOV  R30,R16
	LDI  R31,0
	RET

;OPTIMIZER ADDED SUBROUTINE, CALLED 3 TIMES, CODE SIZE REDUCTION:4 WORDS
SUBOPT_0xF:
	__GETD2S 9
	RET

;OPTIMIZER ADDED SUBROUTINE, CALLED 2 TIMES, CODE SIZE REDUCTION:1 WORDS
SUBOPT_0x10:
	RCALL __GETD1S0
	RET


	.CSEG
__ANEGF1:
	SBIW R30,0
	SBCI R22,0
	SBCI R23,0
	BREQ __ANEGF10
	SUBI R23,0x80
__ANEGF10:
	RET

__ROUND_REPACK:
	TST  R21
	BRPL __REPACK
	CPI  R21,0x80
	BRNE __ROUND_REPACK0
	SBRS R30,0
	RJMP __REPACK
__ROUND_REPACK0:
	ADIW R30,1
	ADC  R22,R25
	ADC  R23,R25
	BRVS __REPACK1

__REPACK:
	LDI  R21,0x80
	EOR  R21,R23
	BRNE __REPACK0
	PUSH R21
	RJMP __ZERORES
__REPACK0:
	CPI  R21,0xFF
	BREQ __REPACK1
	LSL  R22
	LSL  R0
	ROR  R21
	ROR  R22
	MOV  R23,R21
	RET
__REPACK1:
	PUSH R21
	TST  R0
	BRMI __REPACK2
	RJMP __MAXRES
__REPACK2:
	RJMP __MINRES

__UNPACK:
	LDI  R21,0x80
	MOV  R1,R25
	AND  R1,R21
	LSL  R24
	ROL  R25
	EOR  R25,R21
	LSL  R21
	ROR  R24

__UNPACK1:
	LDI  R21,0x80
	MOV  R0,R23
	AND  R0,R21
	LSL  R22
	ROL  R23
	EOR  R23,R21
	LSL  R21
	ROR  R22
	RET

__CFD1U:
	SET
	RJMP __CFD1U0
__CFD1:
	CLT
__CFD1U0:
	PUSH R21
	RCALL __UNPACK1
	CPI  R23,0x80
	BRLO __CFD10
	CPI  R23,0xFF
	BRCC __CFD10
	RJMP __ZERORES
__CFD10:
	LDI  R21,22
	SUB  R21,R23
	BRPL __CFD11
	NEG  R21
	CPI  R21,8
	BRTC __CFD19
	CPI  R21,9
__CFD19:
	BRLO __CFD17
	SER  R30
	SER  R31
	SER  R22
	LDI  R23,0x7F
	BLD  R23,7
	RJMP __CFD15
__CFD17:
	CLR  R23
	TST  R21
	BREQ __CFD15
__CFD18:
	LSL  R30
	ROL  R31
	ROL  R22
	ROL  R23
	DEC  R21
	BRNE __CFD18
	RJMP __CFD15
__CFD11:
	CLR  R23
__CFD12:
	CPI  R21,8
	BRLO __CFD13
	MOV  R30,R31
	MOV  R31,R22
	MOV  R22,R23
	SUBI R21,8
	RJMP __CFD12
__CFD13:
	TST  R21
	BREQ __CFD15
__CFD14:
	LSR  R23
	ROR  R22
	ROR  R31
	ROR  R30
	DEC  R21
	BRNE __CFD14
__CFD15:
	TST  R0
	BRPL __CFD16
	RCALL __ANEGD1
__CFD16:
	POP  R21
	RET

__CDF1U:
	SET
	RJMP __CDF1U0
__CDF1:
	CLT
__CDF1U0:
	SBIW R30,0
	SBCI R22,0
	SBCI R23,0
	BREQ __CDF10
	CLR  R0
	BRTS __CDF11
	TST  R23
	BRPL __CDF11
	COM  R0
	RCALL __ANEGD1
__CDF11:
	MOV  R1,R23
	LDI  R23,30
	TST  R1
__CDF12:
	BRMI __CDF13
	DEC  R23
	LSL  R30
	ROL  R31
	ROL  R22
	ROL  R1
	RJMP __CDF12
__CDF13:
	MOV  R30,R31
	MOV  R31,R22
	MOV  R22,R1
	PUSH R21
	RCALL __REPACK
	POP  R21
__CDF10:
	RET

__SWAPACC:
	PUSH R20
	MOVW R20,R30
	MOVW R30,R26
	MOVW R26,R20
	MOVW R20,R22
	MOVW R22,R24
	MOVW R24,R20
	MOV  R20,R0
	MOV  R0,R1
	MOV  R1,R20
	POP  R20
	RET

__UADD12:
	ADD  R30,R26
	ADC  R31,R27
	ADC  R22,R24
	RET

__NEGMAN1:
	COM  R30
	COM  R31
	COM  R22
	SUBI R30,-1
	SBCI R31,-1
	SBCI R22,-1
	RET

__SUBF12:
	PUSH R21
	RCALL __UNPACK
	CPI  R25,0x80
	BREQ __ADDF129
	LDI  R21,0x80
	EOR  R1,R21

	RJMP __ADDF120

__ADDF12:
	PUSH R21
	RCALL __UNPACK
	CPI  R25,0x80
	BREQ __ADDF129

__ADDF120:
	CPI  R23,0x80
	BREQ __ADDF128
__ADDF121:
	MOV  R21,R23
	SUB  R21,R25
	BRVS __ADDF1211
	BRPL __ADDF122
	RCALL __SWAPACC
	RJMP __ADDF121
__ADDF122:
	CPI  R21,24
	BRLO __ADDF123
	CLR  R26
	CLR  R27
	CLR  R24
__ADDF123:
	CPI  R21,8
	BRLO __ADDF124
	MOV  R26,R27
	MOV  R27,R24
	CLR  R24
	SUBI R21,8
	RJMP __ADDF123
__ADDF124:
	TST  R21
	BREQ __ADDF126
__ADDF125:
	LSR  R24
	ROR  R27
	ROR  R26
	DEC  R21
	BRNE __ADDF125
__ADDF126:
	MOV  R21,R0
	EOR  R21,R1
	BRMI __ADDF127
	RCALL __UADD12
	BRCC __ADDF129
	ROR  R22
	ROR  R31
	ROR  R30
	INC  R23
	BRVC __ADDF129
	RJMP __MAXRES
__ADDF128:
	RCALL __SWAPACC
__ADDF129:
	RCALL __REPACK
	POP  R21
	RET
__ADDF1211:
	BRCC __ADDF128
	RJMP __ADDF129
__ADDF127:
	SUB  R30,R26
	SBC  R31,R27
	SBC  R22,R24
	BREQ __ZERORES
	BRCC __ADDF1210
	COM  R0
	RCALL __NEGMAN1
__ADDF1210:
	TST  R22
	BRMI __ADDF129
	LSL  R30
	ROL  R31
	ROL  R22
	DEC  R23
	BRVC __ADDF1210

__ZERORES:
	CLR  R30
	CLR  R31
	CLR  R22
	CLR  R23
	POP  R21
	RET

__MINRES:
	SER  R30
	SER  R31
	LDI  R22,0x7F
	SER  R23
	POP  R21
	RET

__MAXRES:
	SER  R30
	SER  R31
	LDI  R22,0x7F
	LDI  R23,0x7F
	POP  R21
	RET

__MULF12:
	PUSH R21
	RCALL __UNPACK
	CPI  R23,0x80
	BREQ __ZERORES
	CPI  R25,0x80
	BREQ __ZERORES
	EOR  R0,R1
	SEC
	ADC  R23,R25
	BRVC __MULF124
	BRLT __ZERORES
__MULF125:
	TST  R0
	BRMI __MINRES
	RJMP __MAXRES
__MULF124:
	PUSH R0
	PUSH R17
	PUSH R18
	PUSH R19
	PUSH R20
	CLR  R17
	CLR  R18
	CLR  R25
	MUL  R22,R24
	MOVW R20,R0
	MUL  R24,R31
	MOV  R19,R0
	ADD  R20,R1
	ADC  R21,R25
	MUL  R22,R27
	ADD  R19,R0
	ADC  R20,R1
	ADC  R21,R25
	MUL  R24,R30
	RCALL __MULF126
	MUL  R27,R31
	RCALL __MULF126
	MUL  R22,R26
	RCALL __MULF126
	MUL  R27,R30
	RCALL __MULF127
	MUL  R26,R31
	RCALL __MULF127
	MUL  R26,R30
	ADD  R17,R1
	ADC  R18,R25
	ADC  R19,R25
	ADC  R20,R25
	ADC  R21,R25
	MOV  R30,R19
	MOV  R31,R20
	MOV  R22,R21
	MOV  R21,R18
	POP  R20
	POP  R19
	POP  R18
	POP  R17
	POP  R0
	TST  R22
	BRMI __MULF122
	LSL  R21
	ROL  R30
	ROL  R31
	ROL  R22
	RJMP __MULF123
__MULF122:
	INC  R23
	BRVS __MULF125
__MULF123:
	RCALL __ROUND_REPACK
	POP  R21
	RET

__MULF127:
	ADD  R17,R0
	ADC  R18,R1
	ADC  R19,R25
	RJMP __MULF128
__MULF126:
	ADD  R18,R0
	ADC  R19,R1
__MULF128:
	ADC  R20,R25
	ADC  R21,R25
	RET

__DIVF21:
	PUSH R21
	RCALL __UNPACK
	CPI  R23,0x80
	BRNE __DIVF210
	TST  R1
__DIVF211:
	BRPL __DIVF219
	RJMP __MINRES
__DIVF219:
	RJMP __MAXRES
__DIVF210:
	CPI  R25,0x80
	BRNE __DIVF218
__DIVF217:
	RJMP __ZERORES
__DIVF218:
	EOR  R0,R1
	SEC
	SBC  R25,R23
	BRVC __DIVF216
	BRLT __DIVF217
	TST  R0
	RJMP __DIVF211
__DIVF216:
	MOV  R23,R25
	PUSH R17
	PUSH R18
	PUSH R19
	PUSH R20
	CLR  R1
	CLR  R17
	CLR  R18
	CLR  R19
	CLR  R20
	CLR  R21
	LDI  R25,32
__DIVF212:
	CP   R26,R30
	CPC  R27,R31
	CPC  R24,R22
	CPC  R20,R17
	BRLO __DIVF213
	SUB  R26,R30
	SBC  R27,R31
	SBC  R24,R22
	SBC  R20,R17
	SEC
	RJMP __DIVF214
__DIVF213:
	CLC
__DIVF214:
	ROL  R21
	ROL  R18
	ROL  R19
	ROL  R1
	ROL  R26
	ROL  R27
	ROL  R24
	ROL  R20
	DEC  R25
	BRNE __DIVF212
	MOVW R30,R18
	MOV  R22,R1
	POP  R20
	POP  R19
	POP  R18
	POP  R17
	TST  R22
	BRMI __DIVF215
	LSL  R21
	ROL  R30
	ROL  R31
	ROL  R22
	DEC  R23
	BRVS __DIVF217
__DIVF215:
	RCALL __ROUND_REPACK
	POP  R21
	RET

__CMPF12:
	TST  R25
	BRMI __CMPF120
	TST  R23
	BRMI __CMPF121
	CP   R25,R23
	BRLO __CMPF122
	BRNE __CMPF121
	CP   R26,R30
	CPC  R27,R31
	CPC  R24,R22
	BRLO __CMPF122
	BREQ __CMPF123
__CMPF121:
	CLZ
	CLC
	RET
__CMPF122:
	CLZ
	SEC
	RET
__CMPF123:
	SEZ
	CLC
	RET
__CMPF120:
	TST  R23
	BRPL __CMPF122
	CP   R25,R23
	BRLO __CMPF121
	BRNE __CMPF122
	CP   R30,R26
	CPC  R31,R27
	CPC  R22,R24
	BRLO __CMPF122
	BREQ __CMPF123
	RJMP __CMPF121

__ANEGD1:
	COM  R31
	COM  R22
	COM  R23
	NEG  R30
	SBCI R31,-1
	SBCI R22,-1
	SBCI R23,-1
	RET

__CWD1:
	MOV  R22,R31
	ADD  R22,R22
	SBC  R22,R22
	MOV  R23,R22
	RET

__LTB12U:
	CP   R26,R30
	LDI  R30,1
	BRLO __LTB12U1
	CLR  R30
__LTB12U1:
	RET

__GETD1S0:
	LD   R30,Y
	LDD  R31,Y+1
	LDD  R22,Y+2
	LDD  R23,Y+3
	RET

__GETD2S0:
	LD   R26,Y
	LDD  R27,Y+1
	LDD  R24,Y+2
	LDD  R25,Y+3
	RET

__PUTD1S0:
	ST   Y,R30
	STD  Y+1,R31
	STD  Y+2,R22
	STD  Y+3,R23
	RET

__PUTPARD1:
	ST   -Y,R23
	ST   -Y,R22
	ST   -Y,R31
	ST   -Y,R30
	RET

__PUTPARD2:
	ST   -Y,R25
	ST   -Y,R24
	ST   -Y,R27
	ST   -Y,R26
	RET

__SWAPD12:
	MOV  R1,R24
	MOV  R24,R22
	MOV  R22,R1
	MOV  R1,R25
	MOV  R25,R23
	MOV  R23,R1

__SWAPW12:
	MOV  R1,R27
	MOV  R27,R31
	MOV  R31,R1

__SWAPB12:
	MOV  R1,R26
	MOV  R26,R30
	MOV  R30,R1
	RET

__SAVELOCR6:
	ST   -Y,R21
__SAVELOCR5:
	ST   -Y,R20
__SAVELOCR4:
	ST   -Y,R19
__SAVELOCR3:
	ST   -Y,R18
__SAVELOCR2:
	ST   -Y,R17
	ST   -Y,R16
	RET

__LOADLOCR6:
	LDD  R21,Y+5
__LOADLOCR5:
	LDD  R20,Y+4
__LOADLOCR4:
	LDD  R19,Y+3
__LOADLOCR3:
	LDD  R18,Y+2
__LOADLOCR2:
	LDD  R17,Y+1
	LD   R16,Y
	RET

;END OF CODE MARKER
__END_OF_CODE:
